target datalayout = "e-m:e-p270:32:32-p271:32:32-p272:64:64-i64:64-i128:128-f80:128-n8:16:32:64-S128"
target triple = "x86_64-pc-linux-gnu"

%"class.std::__cxx11::basic_string" = type { %"struct.std::__cxx11::basic_string<char>::_Alloc_hider", i64, %union.anon }
%"struct.std::__cxx11::basic_string<char>::_Alloc_hider" = type { ptr }
%union.anon = type { i64, [8 x i8] }
%"class.OpenColorIO_v2_5dev::CDLParser::Impl" = type <{ ptr, %"class.OpenColorIO_v2_5dev::XmlReaderElementStack", %"class.std::shared_ptr", i32, [4 x i8], %"class.std::__cxx11::basic_string", i8, i8, [6 x i8] }>
%"class.OpenColorIO_v2_5dev::XmlReaderElementStack" = type { ptr, %"class.std::vector" }
%"class.std::vector" = type { %"struct.std::_Vector_base" }
%"struct.std::_Vector_base" = type { %"struct.std::_Vector_base<std::shared_ptr<OpenColorIO_v2_5dev::XmlReaderElement>, std::allocator<std::shared_ptr<OpenColorIO_v2_5dev::XmlReaderElement>>>::_Vector_impl" }
%"struct.std::_Vector_base<std::shared_ptr<OpenColorIO_v2_5dev::XmlReaderElement>, std::allocator<std::shared_ptr<OpenColorIO_v2_5dev::XmlReaderElement>>>::_Vector_impl" = type { %"struct.std::_Vector_base<std::shared_ptr<OpenColorIO_v2_5dev::XmlReaderElement>, std::allocator<std::shared_ptr<OpenColorIO_v2_5dev::XmlReaderElement>>>::_Vector_impl_data" }
%"struct.std::_Vector_base<std::shared_ptr<OpenColorIO_v2_5dev::XmlReaderElement>, std::allocator<std::shared_ptr<OpenColorIO_v2_5dev::XmlReaderElement>>>::_Vector_impl_data" = type { ptr, ptr, ptr }
%"class.std::shared_ptr" = type { %"class.std::__shared_ptr" }
%"class.std::__shared_ptr" = type { ptr, %"class.std::__shared_count" }
%"class.std::__shared_count" = type { ptr }
%"class.std::shared_ptr.4" = type { %"class.std::__shared_ptr.5" }
%"class.std::__shared_ptr.5" = type { ptr, %"class.std::__shared_count" }

; Function Attrs: mustprogress nounwind uwtable
define linkonce_odr hidden void @_ZNSt14__shared_countILN9__gnu_cxx12_Lock_policyE2EEC2Ev(ptr noundef nonnull align 8 dereferenceable(8) %0) unnamed_addr #4 comdat align 2 {
  %2 = alloca ptr, align 8
  store ptr %0, ptr %2, align 8, !tbaa !195
  %3 = load ptr, ptr %2, align 8
  %4 = getelementptr inbounds nuw %"class.std::__shared_count", ptr %3, i32 0, i32 0
  store ptr null, ptr %4, align 8, !tbaa !197
  ret void
}

; Function Attrs: mustprogress nounwind uwtable
define linkonce_odr hidden void @_ZNSt12__shared_ptrIN19OpenColorIO_v2_5dev16XmlReaderElementELN9__gnu_cxx12_Lock_policyE2EEC2Ev(ptr noundef nonnull align 8 dereferenceable(16) %0) unnamed_addr #4 comdat align 2 {
  %2 = alloca ptr, align 8
  store ptr %0, ptr %2, align 8, !tbaa !108
  %3 = load ptr, ptr %2, align 8
  %4 = getelementptr inbounds nuw %"class.std::__shared_ptr.5", ptr %3, i32 0, i32 0
  store ptr null, ptr %4, align 8, !tbaa !110
  %5 = getelementptr inbounds nuw %"class.std::__shared_ptr.5", ptr %3, i32 0, i32 1
  call void @_ZNSt14__shared_countILN9__gnu_cxx12_Lock_policyE2EEC2Ev(ptr noundef nonnull align 8 dereferenceable(8) %5) #3
  ret void
}

; Function Attrs: mustprogress nounwind uwtable
define linkonce_odr hidden void @_ZNSt10shared_ptrIN19OpenColorIO_v2_5dev16XmlReaderElementEEC2Ev(ptr noundef nonnull align 8 dereferenceable(16) %0) unnamed_addr #4 comdat align 2 {
  %2 = alloca ptr, align 8
  store ptr %0, ptr %2, align 8, !tbaa !93
  %3 = load ptr, ptr %2, align 8
  call void @_ZNSt12__shared_ptrIN19OpenColorIO_v2_5dev16XmlReaderElementELN9__gnu_cxx12_Lock_policyE2EEC2Ev(ptr noundef nonnull align 8 dereferenceable(16) %3) #3
  ret void
}

; Function Attrs: mustprogress uwtable
define hidden void @_ZNK19OpenColorIO_v2_5dev9CDLParser4Impl14getBackElementEv(ptr dead_on_unwind noalias writable sret(%"class.std::shared_ptr.4") align 8 %0, ptr noundef nonnull align 8 dereferenceable(98) %1) #5 align 2 {
  %3 = alloca ptr, align 8
  %4 = alloca ptr, align 8
  store ptr %0, ptr %3, align 8
  store ptr %1, ptr %4, align 8, !tbaa !11
  %5 = load ptr, ptr %4, align 8
  %6 = getelementptr inbounds nuw %"class.OpenColorIO_v2_5dev::CDLParser::Impl", ptr %5, i32 0, i32 1
  %7 = call noundef i32 @_ZNK19OpenColorIO_v2_5dev21XmlReaderElementStack4sizeEv(ptr noundef nonnull align 8 dereferenceable(32) %6)
  %8 = icmp ne i32 %7, 0
  br i1 %8, label %9, label %11

9:                                                ; preds = %2
  %10 = getelementptr inbounds nuw %"class.OpenColorIO_v2_5dev::CDLParser::Impl", ptr %5, i32 0, i32 1
  call void @_ZNK19OpenColorIO_v2_5dev21XmlReaderElementStack4backEv(ptr dead_on_unwind writable sret(%"class.std::shared_ptr.4") align 8 %0, ptr noundef nonnull align 8 dereferenceable(32) %10)
  br label %12

11:                                               ; preds = %2
  call void @_ZNSt10shared_ptrIN19OpenColorIO_v2_5dev16XmlReaderElementEEC2Ev(ptr noundef nonnull align 8 dereferenceable(16) %0) #3
  br label %12

12:                                               ; preds = %11, %9
  ret void
}