; Function Attrs: mustprogress uwtable
define hidden void @_ZNK19OpenColorIO_v2_5dev9CDLParser4Impl14getBackElementEv(ptr dead_on_unwind noalias writable sret(%"class.std::shared_ptr.4") align 8 %0, ptr noundef nonnull align 8 dereferenceable(98) %1) local_unnamed_addr #4 align 2 {
  %3 = getelementptr inbounds nuw i8, ptr %1, i64 8
  %4 = tail call noundef i32 @_ZNK19OpenColorIO_v2_5dev21XmlReaderElementStack4sizeEv(ptr noundef nonnull align 8 dereferenceable(32) %3)
  %.not = icmp eq i32 %4, 0
  br i1 %.not, label %6, label %5

5:                                                ; preds = %2
  tail call void @_ZNK19OpenColorIO_v2_5dev21XmlReaderElementStack4backEv(ptr dead_on_unwind writable sret(%"class.std::shared_ptr.4") align 8 %0, ptr noundef nonnull align 8 dereferenceable(32) %3)
  br label %7

6:                                                ; preds = %2
  tail call void @llvm.memset.p0.i64(ptr noundef nonnull align 8 dereferenceable(16) %0, i8 0, i64 16, i1 false)
  br label %7

7:                                                ; preds = %6, %5
  ret void
}